
./tests/my_bool4:	file format mach-o arm64

Disassembly of section __TEXT,__text:

0000000100000630 <__CG_f_1946_0>:
100000630: d10183ff    	sub	sp, sp, #0x60
100000634: a9057bfd    	stp	x29, x30, [sp, #0x50]
100000638: 52800028    	mov	w8, #0x1                ; =1
10000063c: b90013e8    	str	w8, [sp, #0x10]
100000640: 12000109    	and	w9, w8, #0x1
100000644: 12000129    	and	w9, w9, #0x1
100000648: 39013fe9    	strb	w9, [sp, #0x4f]
10000064c: 12000109    	and	w9, w8, #0x1
100000650: 0a080129    	and	w9, w9, w8
100000654: 39013be9    	strb	w9, [sp, #0x4e]
100000658: 12000109    	and	w9, w8, #0x1
10000065c: 0a080129    	and	w9, w9, w8
100000660: 390137e9    	strb	w9, [sp, #0x4d]
100000664: 12000109    	and	w9, w8, #0x1
100000668: 0a080129    	and	w9, w9, w8
10000066c: 390103e9    	strb	w9, [sp, #0x40]
100000670: 12000109    	and	w9, w8, #0x1
100000674: 0a080129    	and	w9, w9, w8
100000678: 3900e3e9    	strb	w9, [sp, #0x38]
10000067c: 12000109    	and	w9, w8, #0x1
100000680: 0a080129    	and	w9, w9, w8
100000684: 3900c3e9    	strb	w9, [sp, #0x30]
100000688: f94023e9    	ldr	x9, [sp, #0x40]
10000068c: f802f3e9    	stur	x9, [sp, #0x2f]
100000690: 360002a8    	tbz	w8, #0x0, 0x1000006e4 <__CG_f_1946_0+0xb4>
100000694: 14000001    	b	0x100000698 <__CG_f_1946_0+0x68>
100000698: 394137e8    	ldrb	w8, [sp, #0x4d]
10000069c: 52800029    	mov	w9, #0x1                ; =1
1000006a0: 1200010a    	and	w10, w8, #0x1
1000006a4: 1200014a    	and	w10, w10, #0x1
1000006a8: 390083ea    	strb	w10, [sp, #0x20]
1000006ac: 39413bea    	ldrb	w10, [sp, #0x4e]
1000006b0: 1200014a    	and	w10, w10, #0x1
1000006b4: 0a09014a    	and	w10, w10, w9
1000006b8: 390063ea    	strb	w10, [sp, #0x18]
1000006bc: f94013ea    	ldr	x10, [sp, #0x20]
1000006c0: f802f3ea    	stur	x10, [sp, #0x2f]
1000006c4: 12000108    	and	w8, w8, #0x1
1000006c8: 0a090108    	and	w8, w8, w9
1000006cc: 39005fe8    	strb	w8, [sp, #0x17]
1000006d0: 39413be8    	ldrb	w8, [sp, #0x4e]
1000006d4: 12000108    	and	w8, w8, #0x1
1000006d8: 0a090108    	and	w8, w8, w9
1000006dc: 39005be8    	strb	w8, [sp, #0x16]
1000006e0: d4200020    	brk	#0x1
1000006e4: 52800028    	mov	w8, #0x1                ; =1
1000006e8: 36000108    	tbz	w8, #0x0, 0x100000708 <__CG_f_1946_0+0xd8>
1000006ec: 14000001    	b	0x1000006f0 <__CG_f_1946_0+0xc0>
1000006f0: b0000008    	adrp	x8, 0x100001000 <__CG_list_getslice+0xcc>
1000006f4: 910a4108    	add	x8, x8, #0x290
1000006f8: 91002100    	add	x0, x8, #0x8
1000006fc: 94000150    	bl	0x100000c3c <__CG_write>
100000700: 94000157    	bl	0x100000c5c <__CG_writeln>
100000704: 14000003    	b	0x100000710 <__CG_f_1946_0+0xe0>
100000708: 94000155    	bl	0x100000c5c <__CG_writeln>
10000070c: 14000001    	b	0x100000710 <__CG_f_1946_0+0xe0>
100000710: f94007e0    	ldr	x0, [sp, #0x8]
100000714: a9457bfd    	ldp	x29, x30, [sp, #0x50]
100000718: 910183ff    	add	sp, sp, #0x60
10000071c: d65f03c0    	ret

0000000100000720 <__CG_f_105_1>:
100000720: d100c3ff    	sub	sp, sp, #0x30
100000724: a9027bfd    	stp	x29, x30, [sp, #0x20]
100000728: 52800608    	mov	w8, #0x30               ; =48
10000072c: aa0803e0    	mov	x0, x8
100000730: 940002ba    	bl	0x100001218 <_vsnprintf+0x100001218>
100000734: 52800508    	mov	w8, #0x28               ; =40
100000738: aa0803e0    	mov	x0, x8
10000073c: f90007e0    	str	x0, [sp, #0x8]
100000740: 940002b6    	bl	0x100001218 <_vsnprintf+0x100001218>
100000744: f94007e0    	ldr	x0, [sp, #0x8]
100000748: 940002b4    	bl	0x100001218 <_vsnprintf+0x100001218>
10000074c: f94007e0    	ldr	x0, [sp, #0x8]
100000750: 940002b2    	bl	0x100001218 <_vsnprintf+0x100001218>
100000754: f94007e0    	ldr	x0, [sp, #0x8]
100000758: 940002b0    	bl	0x100001218 <_vsnprintf+0x100001218>
10000075c: 52800708    	mov	w8, #0x38               ; =56
100000760: aa0803e0    	mov	x0, x8
100000764: f9000be0    	str	x0, [sp, #0x10]
100000768: 940002ac    	bl	0x100001218 <_vsnprintf+0x100001218>
10000076c: f9400be0    	ldr	x0, [sp, #0x10]
100000770: 940002aa    	bl	0x100001218 <_vsnprintf+0x100001218>
100000774: 97ffffaf    	bl	0x100000630 <__CG_f_1946_0>
100000778: f9400fe0    	ldr	x0, [sp, #0x18]
10000077c: a9427bfd    	ldp	x29, x30, [sp, #0x20]
100000780: 9100c3ff    	add	sp, sp, #0x30
100000784: d65f03c0    	ret

0000000100000788 <_main>:
100000788: a9bf7bfd    	stp	x29, x30, [sp, #-0x10]!
10000078c: 97ffffe5    	bl	0x100000720 <__CG_f_105_1>
100000790: 52800000    	mov	w0, #0x0                ; =0
100000794: a8c17bfd    	ldp	x29, x30, [sp], #0x10
100000798: d65f03c0    	ret

000000010000079c <__CG_string_alloc>:
10000079c: a9be4ff4    	stp	x20, x19, [sp, #-0x20]!
1000007a0: a9017bfd    	stp	x29, x30, [sp, #0x10]
1000007a4: 910043fd    	add	x29, sp, #0x10
1000007a8: aa0003f3    	mov	x19, x0
1000007ac: 91002400    	add	x0, x0, #0x9
1000007b0: 9400029a    	bl	0x100001218 <_vsnprintf+0x100001218>
1000007b4: f8008413    	str	x19, [x0], #0x8
1000007b8: 3833681f    	strb	wzr, [x0, x19]
1000007bc: a9417bfd    	ldp	x29, x30, [sp, #0x10]
1000007c0: a8c24ff4    	ldp	x20, x19, [sp], #0x20
1000007c4: d65f03c0    	ret

00000001000007c8 <__CG_String>:
1000007c8: a9be4ff4    	stp	x20, x19, [sp, #-0x20]!
1000007cc: a9017bfd    	stp	x29, x30, [sp, #0x10]
1000007d0: 910043fd    	add	x29, sp, #0x10
1000007d4: aa0003f3    	mov	x19, x0
1000007d8: 940002a5    	bl	0x10000126c <_vsnprintf+0x10000126c>
1000007dc: aa0003f4    	mov	x20, x0
1000007e0: 91002400    	add	x0, x0, #0x9
1000007e4: 9400028d    	bl	0x100001218 <_vsnprintf+0x100001218>
1000007e8: f8008414    	str	x20, [x0], #0x8
1000007ec: 3834681f    	strb	wzr, [x0, x20]
1000007f0: aa1303e1    	mov	x1, x19
1000007f4: aa1403e2    	mov	x2, x20
1000007f8: a9417bfd    	ldp	x29, x30, [sp, #0x10]
1000007fc: a8c24ff4    	ldp	x20, x19, [sp], #0x20
100000800: 14000292    	b	0x100001248 <_vsnprintf+0x100001248>

0000000100000804 <__CG_format_string>:
100000804: d10143ff    	sub	sp, sp, #0x50
100000808: a9015ff8    	stp	x24, x23, [sp, #0x10]
10000080c: a90257f6    	stp	x22, x21, [sp, #0x20]
100000810: a9034ff4    	stp	x20, x19, [sp, #0x30]
100000814: a9047bfd    	stp	x29, x30, [sp, #0x40]
100000818: 910103fd    	add	x29, sp, #0x40
10000081c: aa0003f3    	mov	x19, x0
100000820: b4000080    	cbz	x0, 0x100000830 <__CG_format_string+0x2c>
100000824: b85f8268    	ldur	w8, [x19, #-0x8]
100000828: 11006117    	add	w23, w8, #0x18
10000082c: 14000002    	b	0x100000834 <__CG_format_string+0x30>
100000830: 52800317    	mov	w23, #0x18              ; =24
100000834: 910043b8    	add	x24, x29, #0x10
100000838: f90007f8    	str	x24, [sp, #0x8]
10000083c: 93407ef6    	sxtw	x22, w23
100000840: 910026c0    	add	x0, x22, #0x9
100000844: 94000275    	bl	0x100001218 <_vsnprintf+0x100001218>
100000848: aa0003f4    	mov	x20, x0
10000084c: aa0003f5    	mov	x21, x0
100000850: f80086b6    	str	x22, [x21], #0x8
100000854: 38366abf    	strb	wzr, [x21, x22]
100000858: f94007e3    	ldr	x3, [sp, #0x8]
10000085c: aa1503e0    	mov	x0, x21
100000860: aa1603e1    	mov	x1, x22
100000864: aa1303e2    	mov	x2, x19
100000868: 94000284    	bl	0x100001278 <_vsnprintf+0x100001278>
10000086c: 510006e8    	sub	w8, w23, #0x1
100000870: 531f7af7    	lsl	w23, w23, #1
100000874: 6b08001f    	cmp	w0, w8
100000878: 54fffe0a    	b.ge	0x100000838 <__CG_format_string+0x34>
10000087c: 93407c08    	sxtw	x8, w0
100000880: f9000288    	str	x8, [x20]
100000884: aa1503e0    	mov	x0, x21
100000888: a9447bfd    	ldp	x29, x30, [sp, #0x40]
10000088c: a9434ff4    	ldp	x20, x19, [sp, #0x30]
100000890: a94257f6    	ldp	x22, x21, [sp, #0x20]
100000894: a9415ff8    	ldp	x24, x23, [sp, #0x10]
100000898: 910143ff    	add	sp, sp, #0x50
10000089c: d65f03c0    	ret

00000001000008a0 <__CG_str_from_int>:
1000008a0: d10143ff    	sub	sp, sp, #0x50
1000008a4: a9034ff4    	stp	x20, x19, [sp, #0x30]
1000008a8: a9047bfd    	stp	x29, x30, [sp, #0x40]
1000008ac: 910103fd    	add	x29, sp, #0x40
1000008b0: 90000028    	adrp	x8, 0x100004000 <_vsnprintf+0x100004000>
1000008b4: f9400508    	ldr	x8, [x8, #0x8]
1000008b8: f9400108    	ldr	x8, [x8]
1000008bc: f81e83a8    	stur	x8, [x29, #-0x18]
1000008c0: f90003e0    	str	x0, [sp]
1000008c4: b0000002    	adrp	x2, 0x100001000 <__CG_list_getslice+0xcc>
1000008c8: 910a8442    	add	x2, x2, #0x2a1
1000008cc: 910023e0    	add	x0, sp, #0x8
1000008d0: 52800401    	mov	w1, #0x20               ; =32
1000008d4: 94000260    	bl	0x100001254 <_vsnprintf+0x100001254>
1000008d8: 0aa07c08    	bic	w8, w0, w0, asr #31
1000008dc: 528003e9    	mov	w9, #0x1f               ; =31
1000008e0: 71007d1f    	cmp	w8, #0x1f
1000008e4: 1a89b114    	csel	w20, w8, w9, lt
1000008e8: 91002680    	add	x0, x20, #0x9
1000008ec: 9400024b    	bl	0x100001218 <_vsnprintf+0x100001218>
1000008f0: aa0003f3    	mov	x19, x0
1000008f4: f8008674    	str	x20, [x19], #0x8
1000008f8: 38346a7f    	strb	wzr, [x19, x20]
1000008fc: 910023e1    	add	x1, sp, #0x8
100000900: aa1303e0    	mov	x0, x19
100000904: aa1403e2    	mov	x2, x20
100000908: 94000250    	bl	0x100001248 <_vsnprintf+0x100001248>
10000090c: f85e83a8    	ldur	x8, [x29, #-0x18]
100000910: 90000029    	adrp	x9, 0x100004000 <_vsnprintf+0x100004000>
100000914: f9400529    	ldr	x9, [x9, #0x8]
100000918: f9400129    	ldr	x9, [x9]
10000091c: eb08013f    	cmp	x9, x8
100000920: 540000c1    	b.ne	0x100000938 <__CG_str_from_int+0x98>
100000924: aa1303e0    	mov	x0, x19
100000928: a9447bfd    	ldp	x29, x30, [sp, #0x40]
10000092c: a9434ff4    	ldp	x20, x19, [sp, #0x30]
100000930: 910143ff    	add	sp, sp, #0x50
100000934: d65f03c0    	ret
100000938: 9400023b    	bl	0x100001224 <_vsnprintf+0x100001224>

000000010000093c <__CG_str_from_float>:
10000093c: d101c3ff    	sub	sp, sp, #0x70
100000940: a9054ff4    	stp	x20, x19, [sp, #0x50]
100000944: a9067bfd    	stp	x29, x30, [sp, #0x60]
100000948: 910183fd    	add	x29, sp, #0x60
10000094c: 90000028    	adrp	x8, 0x100004000 <_vsnprintf+0x100004000>
100000950: f9400508    	ldr	x8, [x8, #0x8]
100000954: f9400108    	ldr	x8, [x8]
100000958: f81e83a8    	stur	x8, [x29, #-0x18]
10000095c: fd0003e0    	str	d0, [sp]
100000960: b0000002    	adrp	x2, 0x100001000 <__CG_list_getslice+0xcc>
100000964: 910a9842    	add	x2, x2, #0x2a6
100000968: 910023e0    	add	x0, sp, #0x8
10000096c: 52800801    	mov	w1, #0x40               ; =64
100000970: 94000239    	bl	0x100001254 <_vsnprintf+0x100001254>
100000974: 0aa07c08    	bic	w8, w0, w0, asr #31
100000978: 528007e9    	mov	w9, #0x3f               ; =63
10000097c: 7100fd1f    	cmp	w8, #0x3f
100000980: 1a89b108    	csel	w8, w8, w9, lt
100000984: 7100041f    	cmp	w0, #0x1
100000988: 540003cb    	b.lt	0x100000a00 <__CG_str_from_float+0xc4>
10000098c: 5280000a    	mov	w10, #0x0               ; =0
100000990: 910023e9    	add	x9, sp, #0x8
100000994: 5280002b    	mov	w11, #0x1               ; =1
100000998: d280002c    	mov	x12, #0x1               ; =1
10000099c: f2c0422c    	movk	x12, #0x211, lsl #32
1000009a0: aa0803ed    	mov	x13, x8
1000009a4: 3840152e    	ldrb	w14, [x9], #0x1
1000009a8: 510115cf    	sub	w15, w14, #0x45
1000009ac: 7100b9df    	cmp	w14, #0x2e
1000009b0: 1a8a016a    	csel	w10, w11, w10, eq
1000009b4: 7100a5ff    	cmp	w15, #0x29
1000009b8: 9acf2170    	lsl	x16, x11, x15
1000009bc: 8a0c0210    	and	x16, x16, x12
1000009c0: fa409a04    	ccmp	x16, #0x0, #0x4, ls
1000009c4: 1a8a116a    	csel	w10, w11, w10, ne
1000009c8: 7100a5ff    	cmp	w15, #0x29
1000009cc: 9acf216f    	lsl	x15, x11, x15
1000009d0: 8a0c01ef    	and	x15, x15, x12
1000009d4: fa4099e4    	ccmp	x15, #0x0, #0x4, ls
1000009d8: 540000a1    	b.ne	0x1000009ec <__CG_str_from_float+0xb0>
1000009dc: 7100b9df    	cmp	w14, #0x2e
1000009e0: 54000060    	b.eq	0x1000009ec <__CG_str_from_float+0xb0>
1000009e4: f10005ad    	subs	x13, x13, #0x1
1000009e8: 54fffde1    	b.ne	0x1000009a4 <__CG_str_from_float+0x68>
1000009ec: 7100015f    	cmp	w10, #0x0
1000009f0: 1a9f17e9    	cset	w9, eq
1000009f4: 7100f41f    	cmp	w0, #0x3d
1000009f8: 540000ad    	b.le	0x100000a0c <__CG_str_from_float+0xd0>
1000009fc: 14000009    	b	0x100000a20 <__CG_str_from_float+0xe4>
100000a00: 52800029    	mov	w9, #0x1                ; =1
100000a04: 7100f41f    	cmp	w0, #0x3d
100000a08: 540000cc    	b.gt	0x100000a20 <__CG_str_from_float+0xe4>
100000a0c: 340000a9    	cbz	w9, 0x100000a20 <__CG_str_from_float+0xe4>
100000a10: 910023e9    	add	x9, sp, #0x8
100000a14: 528605ca    	mov	w10, #0x302e            ; =12334
100000a18: 7828492a    	strh	w10, [x9, w8, uxtw]
100000a1c: 11000908    	add	w8, w8, #0x2
100000a20: 2a0803f4    	mov	w20, w8
100000a24: 91002680    	add	x0, x20, #0x9
100000a28: 940001fc    	bl	0x100001218 <_vsnprintf+0x100001218>
100000a2c: aa0003f3    	mov	x19, x0
100000a30: f8008674    	str	x20, [x19], #0x8
100000a34: 38346a7f    	strb	wzr, [x19, x20]
100000a38: 910023e1    	add	x1, sp, #0x8
100000a3c: aa1303e0    	mov	x0, x19
100000a40: aa1403e2    	mov	x2, x20
100000a44: 94000201    	bl	0x100001248 <_vsnprintf+0x100001248>
100000a48: f85e83a8    	ldur	x8, [x29, #-0x18]
100000a4c: 90000029    	adrp	x9, 0x100004000 <_vsnprintf+0x100004000>
100000a50: f9400529    	ldr	x9, [x9, #0x8]
100000a54: f9400129    	ldr	x9, [x9]
100000a58: eb08013f    	cmp	x9, x8
100000a5c: 540000c1    	b.ne	0x100000a74 <__CG_str_from_float+0x138>
100000a60: aa1303e0    	mov	x0, x19
100000a64: a9467bfd    	ldp	x29, x30, [sp, #0x60]
100000a68: a9454ff4    	ldp	x20, x19, [sp, #0x50]
100000a6c: 9101c3ff    	add	sp, sp, #0x70
100000a70: d65f03c0    	ret
100000a74: 940001ec    	bl	0x100001224 <_vsnprintf+0x100001224>

0000000100000a78 <__CG_string_mult>:
100000a78: a9bc5ff8    	stp	x24, x23, [sp, #-0x40]!
100000a7c: a90157f6    	stp	x22, x21, [sp, #0x10]
100000a80: a9024ff4    	stp	x20, x19, [sp, #0x20]
100000a84: a9037bfd    	stp	x29, x30, [sp, #0x30]
100000a88: 9100c3fd    	add	x29, sp, #0x30
100000a8c: aa0103f3    	mov	x19, x1
100000a90: aa0003f4    	mov	x20, x0
100000a94: b4000060    	cbz	x0, 0x100000aa0 <__CG_string_mult+0x28>
100000a98: f85f8295    	ldur	x21, [x20, #-0x8]
100000a9c: 14000002    	b	0x100000aa4 <__CG_string_mult+0x2c>
100000aa0: d2800015    	mov	x21, #0x0               ; =0
100000aa4: 9b137eb7    	mul	x23, x21, x19
100000aa8: 910026e0    	add	x0, x23, #0x9
100000aac: 940001db    	bl	0x100001218 <_vsnprintf+0x100001218>
100000ab0: aa0003f6    	mov	x22, x0
100000ab4: f80086d7    	str	x23, [x22], #0x8
100000ab8: 38376adf    	strb	wzr, [x22, x23]
100000abc: f100067f    	cmp	x19, #0x1
100000ac0: 5400012b    	b.lt	0x100000ae4 <__CG_string_mult+0x6c>
100000ac4: aa1603f7    	mov	x23, x22
100000ac8: aa1703e0    	mov	x0, x23
100000acc: aa1403e1    	mov	x1, x20
100000ad0: aa1503e2    	mov	x2, x21
100000ad4: 940001dd    	bl	0x100001248 <_vsnprintf+0x100001248>
100000ad8: 8b1502f7    	add	x23, x23, x21
100000adc: f1000673    	subs	x19, x19, #0x1
100000ae0: 54ffff41    	b.ne	0x100000ac8 <__CG_string_mult+0x50>
100000ae4: aa1603e0    	mov	x0, x22
100000ae8: a9437bfd    	ldp	x29, x30, [sp, #0x30]
100000aec: a9424ff4    	ldp	x20, x19, [sp, #0x20]
100000af0: a94157f6    	ldp	x22, x21, [sp, #0x10]
100000af4: a8c45ff8    	ldp	x24, x23, [sp], #0x40
100000af8: d65f03c0    	ret

0000000100000afc <__CG_strcat>:
100000afc: a9bc5ff8    	stp	x24, x23, [sp, #-0x40]!
100000b00: a90157f6    	stp	x22, x21, [sp, #0x10]
100000b04: a9024ff4    	stp	x20, x19, [sp, #0x20]
100000b08: a9037bfd    	stp	x29, x30, [sp, #0x30]
100000b0c: 9100c3fd    	add	x29, sp, #0x30
100000b10: aa0103f3    	mov	x19, x1
100000b14: aa0003f4    	mov	x20, x0
100000b18: b40000a0    	cbz	x0, 0x100000b2c <__CG_strcat+0x30>
100000b1c: f85f8295    	ldur	x21, [x20, #-0x8]
100000b20: b40000b3    	cbz	x19, 0x100000b34 <__CG_strcat+0x38>
100000b24: f85f8276    	ldur	x22, [x19, #-0x8]
100000b28: 14000004    	b	0x100000b38 <__CG_strcat+0x3c>
100000b2c: d2800015    	mov	x21, #0x0               ; =0
100000b30: b5ffffb3    	cbnz	x19, 0x100000b24 <__CG_strcat+0x28>
100000b34: d2800016    	mov	x22, #0x0               ; =0
100000b38: 8b1502d8    	add	x24, x22, x21
100000b3c: 91002700    	add	x0, x24, #0x9
100000b40: 940001b6    	bl	0x100001218 <_vsnprintf+0x100001218>
100000b44: aa0003f7    	mov	x23, x0
100000b48: f80086f8    	str	x24, [x23], #0x8
100000b4c: 38386aff    	strb	wzr, [x23, x24]
100000b50: aa1703e0    	mov	x0, x23
100000b54: aa1403e1    	mov	x1, x20
100000b58: aa1503e2    	mov	x2, x21
100000b5c: 940001bb    	bl	0x100001248 <_vsnprintf+0x100001248>
100000b60: 8b1502e0    	add	x0, x23, x21
100000b64: aa1303e1    	mov	x1, x19
100000b68: aa1603e2    	mov	x2, x22
100000b6c: 940001b7    	bl	0x100001248 <_vsnprintf+0x100001248>
100000b70: aa1703e0    	mov	x0, x23
100000b74: a9437bfd    	ldp	x29, x30, [sp, #0x30]
100000b78: a9424ff4    	ldp	x20, x19, [sp, #0x20]
100000b7c: a94157f6    	ldp	x22, x21, [sp, #0x10]
100000b80: a8c45ff8    	ldp	x24, x23, [sp], #0x40
100000b84: d65f03c0    	ret

0000000100000b88 <__CG_char_from_string>:
100000b88: a9be4ff4    	stp	x20, x19, [sp, #-0x20]!
100000b8c: a9017bfd    	stp	x29, x30, [sp, #0x10]
100000b90: 910043fd    	add	x29, sp, #0x10
100000b94: aa0103f3    	mov	x19, x1
100000b98: aa0003f4    	mov	x20, x0
100000b9c: 52800140    	mov	w0, #0xa                ; =10
100000ba0: 9400019e    	bl	0x100001218 <_vsnprintf+0x100001218>
100000ba4: 3900241f    	strb	wzr, [x0, #0x9]
100000ba8: 52800028    	mov	w8, #0x1                ; =1
100000bac: f9000008    	str	x8, [x0]
100000bb0: 3873ca88    	ldrb	w8, [x20, w19, sxtw]
100000bb4: 38008c08    	strb	w8, [x0, #0x8]!
100000bb8: a9417bfd    	ldp	x29, x30, [sp, #0x10]
100000bbc: a8c24ff4    	ldp	x20, x19, [sp], #0x20
100000bc0: d65f03c0    	ret

0000000100000bc4 <__CG_chr>:
100000bc4: a9be4ff4    	stp	x20, x19, [sp, #-0x20]!
100000bc8: a9017bfd    	stp	x29, x30, [sp, #0x10]
100000bcc: 910043fd    	add	x29, sp, #0x10
100000bd0: aa0003f3    	mov	x19, x0
100000bd4: 52800140    	mov	w0, #0xa                ; =10
100000bd8: 94000190    	bl	0x100001218 <_vsnprintf+0x100001218>
100000bdc: 3900241f    	strb	wzr, [x0, #0x9]
100000be0: 52800028    	mov	w8, #0x1                ; =1
100000be4: f9000008    	str	x8, [x0]
100000be8: 38008c13    	strb	w19, [x0, #0x8]!
100000bec: a9417bfd    	ldp	x29, x30, [sp, #0x10]
100000bf0: a8c24ff4    	ldp	x20, x19, [sp], #0x20
100000bf4: d65f03c0    	ret

0000000100000bf8 <__CG_ord>:
100000bf8: b4000040    	cbz	x0, 0x100000c00 <__CG_ord+0x8>
100000bfc: 39400000    	ldrb	w0, [x0]
100000c00: d65f03c0    	ret

0000000100000c04 <__CG_prim_tuple_list_internal>:
100000c04: a9be4ff4    	stp	x20, x19, [sp, #-0x20]!
100000c08: a9017bfd    	stp	x29, x30, [sp, #0x10]
100000c0c: 910043fd    	add	x29, sp, #0x10
100000c10: aa0103f3    	mov	x19, x1
100000c14: 9ba07c28    	umull	x8, w1, w0
100000c18: 91004100    	add	x0, x8, #0x10
100000c1c: 9400017f    	bl	0x100001218 <_vsnprintf+0x100001218>
100000c20: 91004008    	add	x8, x0, #0x10
100000c24: 29004c13    	stp	w19, w19, [x0]
100000c28: f9000408    	str	x8, [x0, #0x8]
100000c2c: aa0803e0    	mov	x0, x8
100000c30: a9417bfd    	ldp	x29, x30, [sp, #0x10]
100000c34: a8c24ff4    	ldp	x20, x19, [sp], #0x20
100000c38: d65f03c0    	ret

0000000100000c3c <__CG_write>:
100000c3c: b40000e0    	cbz	x0, 0x100000c58 <__CG_write+0x1c>
100000c40: 90000028    	adrp	x8, 0x100004000 <_vsnprintf+0x100004000>
100000c44: f9400908    	ldr	x8, [x8, #0x10]
100000c48: f85f8001    	ldur	x1, [x0, #-0x8]
100000c4c: f9400103    	ldr	x3, [x8]
100000c50: 52800022    	mov	w2, #0x1                ; =1
100000c54: 1400017a    	b	0x10000123c <_vsnprintf+0x10000123c>
100000c58: d65f03c0    	ret

0000000100000c5c <__CG_writeln>:
100000c5c: 90000028    	adrp	x8, 0x100004000 <_vsnprintf+0x100004000>
100000c60: f9400908    	ldr	x8, [x8, #0x10]
100000c64: f9400103    	ldr	x3, [x8]
100000c68: b0000000    	adrp	x0, 0x100001000 <__CG_list_getslice+0xcc>
100000c6c: 910ab000    	add	x0, x0, #0x2ac
100000c70: 52800021    	mov	w1, #0x1                ; =1
100000c74: 52800022    	mov	w2, #0x1                ; =1
100000c78: 14000171    	b	0x10000123c <_vsnprintf+0x10000123c>

0000000100000c7c <__CG_prim_clone_vector_runtime>:
100000c7c: a9bd57f6    	stp	x22, x21, [sp, #-0x30]!
100000c80: a9014ff4    	stp	x20, x19, [sp, #0x10]
100000c84: a9027bfd    	stp	x29, x30, [sp, #0x20]
100000c88: 910083fd    	add	x29, sp, #0x20
100000c8c: aa0203f3    	mov	x19, x2
100000c90: aa0103f4    	mov	x20, x1
100000c94: aa0003f5    	mov	x21, x0
100000c98: 8b010040    	add	x0, x2, x1
100000c9c: 9400015f    	bl	0x100001218 <_vsnprintf+0x100001218>
100000ca0: aa0003f6    	mov	x22, x0
100000ca4: aa1503e1    	mov	x1, x21
100000ca8: aa1403e2    	mov	x2, x20
100000cac: 94000167    	bl	0x100001248 <_vsnprintf+0x100001248>
100000cb0: 8b1402c0    	add	x0, x22, x20
100000cb4: aa1303e1    	mov	x1, x19
100000cb8: 9400015e    	bl	0x100001230 <_vsnprintf+0x100001230>
100000cbc: aa1603e0    	mov	x0, x22
100000cc0: a9427bfd    	ldp	x29, x30, [sp, #0x20]
100000cc4: a9414ff4    	ldp	x20, x19, [sp, #0x10]
100000cc8: a8c357f6    	ldp	x22, x21, [sp], #0x30
100000ccc: d65f03c0    	ret

0000000100000cd0 <__CG_to_list_runtime>:
100000cd0: a9bd57f6    	stp	x22, x21, [sp, #-0x30]!
100000cd4: a9014ff4    	stp	x20, x19, [sp, #0x10]
100000cd8: a9027bfd    	stp	x29, x30, [sp, #0x20]
100000cdc: 910083fd    	add	x29, sp, #0x20
100000ce0: aa0203f6    	mov	x22, x2
100000ce4: aa0103f5    	mov	x21, x1
100000ce8: aa0003f4    	mov	x20, x0
100000cec: 2a0103f3    	mov	w19, w1
100000cf0: 91004260    	add	x0, x19, #0x10
100000cf4: 94000149    	bl	0x100001218 <_vsnprintf+0x100001218>
100000cf8: aa0003e8    	mov	x8, x0
100000cfc: 91004000    	add	x0, x0, #0x10
100000d00: 29005916    	stp	w22, w22, [x8]
100000d04: f9000500    	str	x0, [x8, #0x8]
100000d08: b4000114    	cbz	x20, 0x100000d28 <__CG_to_list_runtime+0x58>
100000d0c: 340000f5    	cbz	w21, 0x100000d28 <__CG_to_list_runtime+0x58>
100000d10: aa1403e1    	mov	x1, x20
100000d14: aa1303e2    	mov	x2, x19
100000d18: a9427bfd    	ldp	x29, x30, [sp, #0x20]
100000d1c: a9414ff4    	ldp	x20, x19, [sp, #0x10]
100000d20: a8c357f6    	ldp	x22, x21, [sp], #0x30
100000d24: 14000149    	b	0x100001248 <_vsnprintf+0x100001248>
100000d28: a9427bfd    	ldp	x29, x30, [sp, #0x20]
100000d2c: a9414ff4    	ldp	x20, x19, [sp, #0x10]
100000d30: a8c357f6    	ldp	x22, x21, [sp], #0x30
100000d34: d65f03c0    	ret

0000000100000d38 <__CG_list_add>:
100000d38: a9bb67fa    	stp	x26, x25, [sp, #-0x50]!
100000d3c: a9015ff8    	stp	x24, x23, [sp, #0x10]
100000d40: a90257f6    	stp	x22, x21, [sp, #0x20]
100000d44: a9034ff4    	stp	x20, x19, [sp, #0x30]
100000d48: a9047bfd    	stp	x29, x30, [sp, #0x40]
100000d4c: 910103fd    	add	x29, sp, #0x40
100000d50: aa0103f4    	mov	x20, x1
100000d54: aa0003f3    	mov	x19, x0
100000d58: b40000a0    	cbz	x0, 0x100000d6c <__CG_list_add+0x34>
100000d5c: b85f4276    	ldur	w22, [x19, #-0xc]
100000d60: b40000b4    	cbz	x20, 0x100000d74 <__CG_list_add+0x3c>
100000d64: b85f4298    	ldur	w24, [x20, #-0xc]
100000d68: 14000004    	b	0x100000d78 <__CG_list_add+0x40>
100000d6c: 52800016    	mov	w22, #0x0               ; =0
100000d70: b5ffffb4    	cbnz	x20, 0x100000d64 <__CG_list_add+0x2c>
100000d74: 52800018    	mov	w24, #0x0               ; =0
100000d78: f100005f    	cmp	x2, #0x0
100000d7c: 9a820079    	csel	x25, x3, x2, eq
100000d80: 0b160317    	add	w23, w24, w22
100000d84: 9b177f20    	mul	x0, x25, x23
100000d88: 94000124    	bl	0x100001218 <_vsnprintf+0x100001218>
100000d8c: aa0003f5    	mov	x21, x0
100000d90: 340000d6    	cbz	w22, 0x100000da8 <__CG_list_add+0x70>
100000d94: f85f8261    	ldur	x1, [x19, #-0x8]
100000d98: 2a1603e8    	mov	w8, w22
100000d9c: 9b087f22    	mul	x2, x25, x8
100000da0: aa1503e0    	mov	x0, x21
100000da4: 94000129    	bl	0x100001248 <_vsnprintf+0x100001248>
100000da8: 340000f8    	cbz	w24, 0x100000dc4 <__CG_list_add+0x8c>
100000dac: 2a1603e8    	mov	w8, w22
100000db0: 9b085720    	madd	x0, x25, x8, x21
100000db4: f85f8281    	ldur	x1, [x20, #-0x8]
100000db8: 2a1803e8    	mov	w8, w24
100000dbc: 9b087f22    	mul	x2, x25, x8
100000dc0: 94000122    	bl	0x100001248 <_vsnprintf+0x100001248>
100000dc4: 293e5e77    	stp	w23, w23, [x19, #-0x10]
100000dc8: f81f8275    	stur	x21, [x19, #-0x8]
100000dcc: aa1303e0    	mov	x0, x19
100000dd0: a9447bfd    	ldp	x29, x30, [sp, #0x40]
100000dd4: a9434ff4    	ldp	x20, x19, [sp, #0x30]
100000dd8: a94257f6    	ldp	x22, x21, [sp, #0x20]
100000ddc: a9415ff8    	ldp	x24, x23, [sp, #0x10]
100000de0: a8c567fa    	ldp	x26, x25, [sp], #0x50
100000de4: d65f03c0    	ret

0000000100000de8 <__CG_list_resize>:
100000de8: a9bc5ff8    	stp	x24, x23, [sp, #-0x40]!
100000dec: a90157f6    	stp	x22, x21, [sp, #0x10]
100000df0: a9024ff4    	stp	x20, x19, [sp, #0x20]
100000df4: a9037bfd    	stp	x29, x30, [sp, #0x30]
100000df8: 9100c3fd    	add	x29, sp, #0x30
100000dfc: aa0203f4    	mov	x20, x2
100000e00: aa0103f5    	mov	x21, x1
100000e04: aa0003f3    	mov	x19, x0
100000e08: b4000300    	cbz	x0, 0x100000e68 <__CG_list_resize+0x80>
100000e0c: b85f4277    	ldur	w23, [x19, #-0xc]
100000e10: b4000314    	cbz	x20, 0x100000e70 <__CG_list_resize+0x88>
100000e14: 9b157e80    	mul	x0, x20, x21
100000e18: 94000100    	bl	0x100001218 <_vsnprintf+0x100001218>
100000e1c: aa0003f6    	mov	x22, x0
100000e20: 6b1402ff    	cmp	w23, w20
100000e24: 1a9432e8    	csel	w8, w23, w20, lo
100000e28: 340000e8    	cbz	w8, 0x100000e44 <__CG_list_resize+0x5c>
100000e2c: b40000d6    	cbz	x22, 0x100000e44 <__CG_list_resize+0x5c>
100000e30: f85f8261    	ldur	x1, [x19, #-0x8]
100000e34: 2a1703e8    	mov	w8, w23
100000e38: 9b087ea2    	mul	x2, x21, x8
100000e3c: aa1603e0    	mov	x0, x22
100000e40: 94000102    	bl	0x100001248 <_vsnprintf+0x100001248>
100000e44: f10002df    	cmp	x22, #0x0
100000e48: 7a571280    	ccmp	w20, w23, #0x0, ne
100000e4c: 54000149    	b.ls	0x100000e74 <__CG_list_resize+0x8c>
100000e50: 2a1703e8    	mov	w8, w23
100000e54: 9b085aa0    	madd	x0, x21, x8, x22
100000e58: 4b170288    	sub	w8, w20, w23
100000e5c: 9b087ea1    	mul	x1, x21, x8
100000e60: 940000f4    	bl	0x100001230 <_vsnprintf+0x100001230>
100000e64: 14000004    	b	0x100000e74 <__CG_list_resize+0x8c>
100000e68: 52800017    	mov	w23, #0x0               ; =0
100000e6c: b5fffd54    	cbnz	x20, 0x100000e14 <__CG_list_resize+0x2c>
100000e70: d2800016    	mov	x22, #0x0               ; =0
100000e74: 293e5274    	stp	w20, w20, [x19, #-0x10]
100000e78: f81f8276    	stur	x22, [x19, #-0x8]
100000e7c: aa1303e0    	mov	x0, x19
100000e80: a9437bfd    	ldp	x29, x30, [sp, #0x30]
100000e84: a9424ff4    	ldp	x20, x19, [sp, #0x20]
100000e88: a94157f6    	ldp	x22, x21, [sp, #0x10]
100000e8c: a8c45ff8    	ldp	x24, x23, [sp], #0x40
100000e90: d65f03c0    	ret

0000000100000e94 <__CG_list_mult>:
100000e94: a9bc5ff8    	stp	x24, x23, [sp, #-0x40]!
100000e98: a90157f6    	stp	x22, x21, [sp, #0x10]
100000e9c: a9024ff4    	stp	x20, x19, [sp, #0x20]
100000ea0: a9037bfd    	stp	x29, x30, [sp, #0x30]
100000ea4: 9100c3fd    	add	x29, sp, #0x30
100000ea8: b40000c1    	cbz	x1, 0x100000ec0 <__CG_list_mult+0x2c>
100000eac: aa0103f3    	mov	x19, x1
100000eb0: aa0003f6    	mov	x22, x0
100000eb4: b40000a0    	cbz	x0, 0x100000ec8 <__CG_list_mult+0x34>
100000eb8: b85f42d7    	ldur	w23, [x22, #-0xc]
100000ebc: 14000004    	b	0x100000ecc <__CG_list_mult+0x38>
100000ec0: d2800014    	mov	x20, #0x0               ; =0
100000ec4: 14000016    	b	0x100000f1c <__CG_list_mult+0x88>
100000ec8: 52800017    	mov	w23, #0x0               ; =0
100000ecc: 2a1703e8    	mov	w8, w23
100000ed0: 9b087c55    	mul	x21, x2, x8
100000ed4: d2800208    	mov	x8, #0x10               ; =16
100000ed8: 9b1322a0    	madd	x0, x21, x19, x8
100000edc: 940000cf    	bl	0x100001218 <_vsnprintf+0x100001218>
100000ee0: 91004014    	add	x20, x0, #0x10
100000ee4: 1b137ee8    	mul	w8, w23, w19
100000ee8: 29002008    	stp	w8, w8, [x0]
100000eec: f9000414    	str	x20, [x0, #0x8]
100000ef0: f100067f    	cmp	x19, #0x1
100000ef4: 5400014b    	b.lt	0x100000f1c <__CG_list_mult+0x88>
100000ef8: f85f82d6    	ldur	x22, [x22, #-0x8]
100000efc: aa1403f7    	mov	x23, x20
100000f00: aa1703e0    	mov	x0, x23
100000f04: aa1603e1    	mov	x1, x22
100000f08: aa1503e2    	mov	x2, x21
100000f0c: 940000cf    	bl	0x100001248 <_vsnprintf+0x100001248>
100000f10: 8b1502f7    	add	x23, x23, x21
100000f14: f1000673    	subs	x19, x19, #0x1
100000f18: 54ffff41    	b.ne	0x100000f00 <__CG_list_mult+0x6c>
100000f1c: aa1403e0    	mov	x0, x20
100000f20: a9437bfd    	ldp	x29, x30, [sp, #0x30]
100000f24: a9424ff4    	ldp	x20, x19, [sp, #0x20]
100000f28: a94157f6    	ldp	x22, x21, [sp, #0x10]
100000f2c: a8c45ff8    	ldp	x24, x23, [sp], #0x40
100000f30: d65f03c0    	ret

0000000100000f34 <__CG_list_getslice>:
100000f34: a9bb67fa    	stp	x26, x25, [sp, #-0x50]!
100000f38: a9015ff8    	stp	x24, x23, [sp, #0x10]
100000f3c: a90257f6    	stp	x22, x21, [sp, #0x20]
100000f40: a9034ff4    	stp	x20, x19, [sp, #0x30]
100000f44: a9047bfd    	stp	x29, x30, [sp, #0x40]
100000f48: 910103fd    	add	x29, sp, #0x40
100000f4c: aa0403f4    	mov	x20, x4
100000f50: aa0103f3    	mov	x19, x1
100000f54: aa0003f6    	mov	x22, x0
100000f58: b4000060    	cbz	x0, 0x100000f64 <__CG_list_getslice+0x30>
100000f5c: b85f42c8    	ldur	w8, [x22, #-0xc]
100000f60: 14000002    	b	0x100000f68 <__CG_list_getslice+0x34>
100000f64: 52800008    	mov	w8, #0x0                ; =0
100000f68: 6b02011f    	cmp	w8, w2
100000f6c: 1a82b109    	csel	w9, w8, w2, lt
100000f70: 0b08012a    	add	w10, w9, w8
100000f74: 0aaa7d4a    	bic	w10, w10, w10, asr #31
100000f78: 7100013f    	cmp	w9, #0x0
100000f7c: 1a89b158    	csel	w24, w10, w9, lt
100000f80: 6b03011f    	cmp	w8, w3
100000f84: 1a83b109    	csel	w9, w8, w3, lt
100000f88: 0b080128    	add	w8, w9, w8
100000f8c: 0aa87d08    	bic	w8, w8, w8, asr #31
100000f90: 7100013f    	cmp	w9, #0x0
100000f94: 1a89b108    	csel	w8, w8, w9, lt
100000f98: 6b180108    	subs	w8, w8, w24
100000f9c: 1a8833e8    	csel	w8, wzr, w8, lo
100000fa0: 7100069f    	cmp	w20, #0x1
100000fa4: 1a9f8699    	csinc	w25, w20, wzr, hi
100000fa8: 1ad90d17    	sdiv	w23, w8, w25
100000fac: 0ab77efa    	bic	w26, w23, w23, asr #31
100000fb0: d2800208    	mov	x8, #0x10               ; =16
100000fb4: 9b1a2260    	madd	x0, x19, x26, x8
100000fb8: 94000098    	bl	0x100001218 <_vsnprintf+0x100001218>
100000fbc: 91004015    	add	x21, x0, #0x10
100000fc0: 2900681a    	stp	w26, w26, [x0]
100000fc4: f9000415    	str	x21, [x0, #0x8]
100000fc8: 710006ff    	cmp	w23, #0x1
100000fcc: 5400034b    	b.lt	0x100001034 <__CG_list_getslice+0x100>
100000fd0: f85f82c8    	ldur	x8, [x22, #-0x8]
100000fd4: 71000a9f    	cmp	w20, #0x2
100000fd8: 54000142    	b.hs	0x100001000 <__CG_list_getslice+0xcc>
100000fdc: 9b182261    	madd	x1, x19, x24, x8
100000fe0: 9b177e62    	mul	x2, x19, x23
100000fe4: aa1503e0    	mov	x0, x21
100000fe8: a9447bfd    	ldp	x29, x30, [sp, #0x40]
100000fec: a9434ff4    	ldp	x20, x19, [sp, #0x30]
100000ff0: a94257f6    	ldp	x22, x21, [sp, #0x20]
100000ff4: a9415ff8    	ldp	x24, x23, [sp, #0x10]
100000ff8: a8c567fa    	ldp	x26, x25, [sp], #0x50
100000ffc: 14000093    	b	0x100001248 <_vsnprintf+0x100001248>
100001000: 93407f29    	sxtw	x9, w25
100001004: 93407f0a    	sxtw	x10, w24
100001008: 9b0a2274    	madd	x20, x19, x10, x8
10000100c: 9b097e78    	mul	x24, x19, x9
100001010: aa1503f6    	mov	x22, x21
100001014: aa1603e0    	mov	x0, x22
100001018: aa1403e1    	mov	x1, x20
10000101c: aa1303e2    	mov	x2, x19
100001020: 9400008a    	bl	0x100001248 <_vsnprintf+0x100001248>
100001024: 8b180294    	add	x20, x20, x24
100001028: 8b1302d6    	add	x22, x22, x19
10000102c: f10006f7    	subs	x23, x23, #0x1
100001030: 54ffff21    	b.ne	0x100001014 <__CG_list_getslice+0xe0>
100001034: aa1503e0    	mov	x0, x21
100001038: a9447bfd    	ldp	x29, x30, [sp, #0x40]
10000103c: a9434ff4    	ldp	x20, x19, [sp, #0x30]
100001040: a94257f6    	ldp	x22, x21, [sp, #0x20]
100001044: a9415ff8    	ldp	x24, x23, [sp, #0x10]
100001048: a8c567fa    	ldp	x26, x25, [sp], #0x50
10000104c: d65f03c0    	ret

0000000100001050 <__CG_list_setslice>:
100001050: a9ba6ffc    	stp	x28, x27, [sp, #-0x60]!
100001054: a90167fa    	stp	x26, x25, [sp, #0x10]
100001058: a9025ff8    	stp	x24, x23, [sp, #0x20]
10000105c: a90357f6    	stp	x22, x21, [sp, #0x30]
100001060: a9044ff4    	stp	x20, x19, [sp, #0x40]
100001064: a9057bfd    	stp	x29, x30, [sp, #0x50]
100001068: 910143fd    	add	x29, sp, #0x50
10000106c: aa0403f5    	mov	x21, x4
100001070: aa0103f4    	mov	x20, x1
100001074: aa0003f3    	mov	x19, x0
100001078: b40000a0    	cbz	x0, 0x10000108c <__CG_list_setslice+0x3c>
10000107c: b85f4279    	ldur	w25, [x19, #-0xc]
100001080: b40000b5    	cbz	x21, 0x100001094 <__CG_list_setslice+0x44>
100001084: b85f42bb    	ldur	w27, [x21, #-0xc]
100001088: 14000004    	b	0x100001098 <__CG_list_setslice+0x48>
10000108c: 52800019    	mov	w25, #0x0               ; =0
100001090: b5ffffb5    	cbnz	x21, 0x100001084 <__CG_list_setslice+0x34>
100001094: 5280001b    	mov	w27, #0x0               ; =0
100001098: 6b02033f    	cmp	w25, w2
10000109c: 1a82b328    	csel	w8, w25, w2, lt
1000010a0: 0b190109    	add	w9, w8, w25
1000010a4: 0aa97d29    	bic	w9, w9, w9, asr #31
1000010a8: 7100011f    	cmp	w8, #0x0
1000010ac: 1a88b138    	csel	w24, w9, w8, lt
1000010b0: 6b03033f    	cmp	w25, w3
1000010b4: 1a83b328    	csel	w8, w25, w3, lt
1000010b8: 0b190109    	add	w9, w8, w25
1000010bc: 0aa97d29    	bic	w9, w9, w9, asr #31
1000010c0: 7100011f    	cmp	w8, #0x0
1000010c4: 1a88b128    	csel	w8, w9, w8, lt
1000010c8: 6b08031f    	cmp	w24, w8
1000010cc: 1a88831a    	csel	w26, w24, w8, hi
1000010d0: 0b190308    	add	w8, w24, w25
1000010d4: 4b1a0108    	sub	w8, w8, w26
1000010d8: 0b1b011c    	add	w28, w8, w27
1000010dc: f85f8276    	ldur	x22, [x19, #-0x8]
1000010e0: 93407f88    	sxtw	x8, w28
1000010e4: 9b087e80    	mul	x0, x20, x8
1000010e8: 9400004c    	bl	0x100001218 <_vsnprintf+0x100001218>
1000010ec: aa0003f7    	mov	x23, x0
1000010f0: 293e727c    	stp	w28, w28, [x19, #-0x10]
1000010f4: f81f8260    	stur	x0, [x19, #-0x8]
1000010f8: 340000f8    	cbz	w24, 0x100001114 <__CG_list_setslice+0xc4>
1000010fc: 9b187e98    	mul	x24, x20, x24
100001100: aa1703e0    	mov	x0, x23
100001104: aa1603e1    	mov	x1, x22
100001108: aa1803e2    	mov	x2, x24
10000110c: 9400004f    	bl	0x100001248 <_vsnprintf+0x100001248>
100001110: 8b1802f7    	add	x23, x23, x24
100001114: 3400011b    	cbz	w27, 0x100001134 <__CG_list_setslice+0xe4>
100001118: f85f82a1    	ldur	x1, [x21, #-0x8]
10000111c: 2a1b03e8    	mov	w8, w27
100001120: 9b087e95    	mul	x21, x20, x8
100001124: aa1703e0    	mov	x0, x23
100001128: aa1503e2    	mov	x2, x21
10000112c: 94000047    	bl	0x100001248 <_vsnprintf+0x100001248>
100001130: 8b1502f7    	add	x23, x23, x21
100001134: 4b1a0328    	sub	w8, w25, w26
100001138: 7100051f    	cmp	w8, #0x1
10000113c: 540000cb    	b.lt	0x100001154 <__CG_list_setslice+0x104>
100001140: 93407f49    	sxtw	x9, w26
100001144: 9b095a81    	madd	x1, x20, x9, x22
100001148: 9b087e82    	mul	x2, x20, x8
10000114c: aa1703e0    	mov	x0, x23
100001150: 9400003e    	bl	0x100001248 <_vsnprintf+0x100001248>
100001154: aa1303e0    	mov	x0, x19
100001158: a9457bfd    	ldp	x29, x30, [sp, #0x50]
10000115c: a9444ff4    	ldp	x20, x19, [sp, #0x40]
100001160: a94357f6    	ldp	x22, x21, [sp, #0x30]
100001164: a9425ff8    	ldp	x24, x23, [sp, #0x20]
100001168: a94167fa    	ldp	x26, x25, [sp, #0x10]
10000116c: a8c66ffc    	ldp	x28, x27, [sp], #0x60
100001170: d65f03c0    	ret

0000000100001174 <__CG_str_eq>:
100001174: a9bf7bfd    	stp	x29, x30, [sp, #-0x10]!
100001178: 910003fd    	mov	x29, sp
10000117c: 94000039    	bl	0x100001260 <_vsnprintf+0x100001260>
100001180: 7100001f    	cmp	w0, #0x0
100001184: 1a9f17e0    	cset	w0, eq
100001188: a8c17bfd    	ldp	x29, x30, [sp], #0x10
10000118c: d65f03c0    	ret

0000000100001190 <__CG_str_ne>:
100001190: a9bf7bfd    	stp	x29, x30, [sp, #-0x10]!
100001194: 910003fd    	mov	x29, sp
100001198: 94000032    	bl	0x100001260 <_vsnprintf+0x100001260>
10000119c: 7100001f    	cmp	w0, #0x0
1000011a0: 1a9f07e0    	cset	w0, ne
1000011a4: a8c17bfd    	ldp	x29, x30, [sp], #0x10
1000011a8: d65f03c0    	ret

00000001000011ac <__CG_str_lt>:
1000011ac: a9bf7bfd    	stp	x29, x30, [sp, #-0x10]!
1000011b0: 910003fd    	mov	x29, sp
1000011b4: 9400002b    	bl	0x100001260 <_vsnprintf+0x100001260>
1000011b8: 531f7c00    	lsr	w0, w0, #31
1000011bc: a8c17bfd    	ldp	x29, x30, [sp], #0x10
1000011c0: d65f03c0    	ret

00000001000011c4 <__CG_str_le>:
1000011c4: a9bf7bfd    	stp	x29, x30, [sp, #-0x10]!
1000011c8: 910003fd    	mov	x29, sp
1000011cc: 94000025    	bl	0x100001260 <_vsnprintf+0x100001260>
1000011d0: 7100041f    	cmp	w0, #0x1
1000011d4: 1a9fa7e0    	cset	w0, lt
1000011d8: a8c17bfd    	ldp	x29, x30, [sp], #0x10
1000011dc: d65f03c0    	ret

00000001000011e0 <__CG_str_gt>:
1000011e0: a9bf7bfd    	stp	x29, x30, [sp, #-0x10]!
1000011e4: 910003fd    	mov	x29, sp
1000011e8: 9400001e    	bl	0x100001260 <_vsnprintf+0x100001260>
1000011ec: 7100001f    	cmp	w0, #0x0
1000011f0: 1a9fd7e0    	cset	w0, gt
1000011f4: a8c17bfd    	ldp	x29, x30, [sp], #0x10
1000011f8: d65f03c0    	ret

00000001000011fc <__CG_str_ge>:
1000011fc: a9bf7bfd    	stp	x29, x30, [sp, #-0x10]!
100001200: 910003fd    	mov	x29, sp
100001204: 94000017    	bl	0x100001260 <_vsnprintf+0x100001260>
100001208: 2a2003e8    	mvn	w8, w0
10000120c: 531f7d00    	lsr	w0, w8, #31
100001210: a8c17bfd    	ldp	x29, x30, [sp], #0x10
100001214: d65f03c0    	ret

Disassembly of section __TEXT,__stubs:

0000000100001218 <__stubs>:
100001218: f0000010    	adrp	x16, 0x100004000 <_vsnprintf+0x100004000>
10000121c: f9402a10    	ldr	x16, [x16, #0x50]
100001220: d61f0200    	br	x16
100001224: f0000010    	adrp	x16, 0x100004000 <_vsnprintf+0x100004000>
100001228: f9400210    	ldr	x16, [x16]
10000122c: d61f0200    	br	x16
100001230: f0000010    	adrp	x16, 0x100004000 <_vsnprintf+0x100004000>
100001234: f9400e10    	ldr	x16, [x16, #0x18]
100001238: d61f0200    	br	x16
10000123c: f0000010    	adrp	x16, 0x100004000 <_vsnprintf+0x100004000>
100001240: f9401210    	ldr	x16, [x16, #0x20]
100001244: d61f0200    	br	x16
100001248: f0000010    	adrp	x16, 0x100004000 <_vsnprintf+0x100004000>
10000124c: f9401610    	ldr	x16, [x16, #0x28]
100001250: d61f0200    	br	x16
100001254: f0000010    	adrp	x16, 0x100004000 <_vsnprintf+0x100004000>
100001258: f9401a10    	ldr	x16, [x16, #0x30]
10000125c: d61f0200    	br	x16
100001260: f0000010    	adrp	x16, 0x100004000 <_vsnprintf+0x100004000>
100001264: f9401e10    	ldr	x16, [x16, #0x38]
100001268: d61f0200    	br	x16
10000126c: f0000010    	adrp	x16, 0x100004000 <_vsnprintf+0x100004000>
100001270: f9402210    	ldr	x16, [x16, #0x40]
100001274: d61f0200    	br	x16
100001278: f0000010    	adrp	x16, 0x100004000 <_vsnprintf+0x100004000>
10000127c: f9402610    	ldr	x16, [x16, #0x48]
100001280: d61f0200    	br	x16
